; Function Attrs: nounwind uwtable
define internal ptr @align_func(ptr noundef readonly captures(none) %0, ptr noundef %1) #0 {
  %3 = getelementptr i8, ptr %0, i64 32
  %.val = load ptr, ptr %3, align 8, !tbaa !56
  %4 = getelementptr i8, ptr %1, i64 8
  %.val7.i = load ptr, ptr %4, align 8, !tbaa !30
  %5 = getelementptr i8, ptr %.val7.i, i64 168
  %.val7.val.i = load i64, ptr %5, align 8, !tbaa !51
  %6 = and i64 %.val7.val.i, 2147483648
  %.not12.i = icmp eq i64 %6, 0
  %7 = getelementptr inbounds nuw i8, ptr %.val, i64 40
  %8 = load ptr, ptr %7, align 8, !tbaa !21
  br i1 %.not12.i, label %15, label %9

9:                                                ; preds = %2
  %10 = tail call i32 @PyObject_IsInstance(ptr noundef nonnull %1, ptr noundef %8) #10
  %.not.i.i = icmp eq i32 %10, 0
  br i1 %.not.i.i, label %24, label %11

11:                                               ; preds = %9
  %12 = load ptr, ptr %7, align 8, !tbaa !21
  %13 = tail call ptr @PyObject_GetTypeData(ptr noundef nonnull %1, ptr noundef %12) #10
  %14 = load i32, ptr %13, align 8, !tbaa !22
  %.not8.i.i = icmp eq i32 %14, 0
  br i1 %.not8.i.i, label %24, label %PyStgInfo_FromAny.exit

15:                                               ; preds = %2
  %16 = tail call i32 @PyObject_IsInstance(ptr noundef nonnull %.val7.i, ptr noundef %8) #10
  %.not.i8.i = icmp eq i32 %16, 0
  br i1 %.not.i8.i, label %24, label %17

17:                                               ; preds = %15
  %18 = load ptr, ptr %7, align 8, !tbaa !21
  %19 = tail call ptr @PyObject_GetTypeData(ptr noundef nonnull %.val7.i, ptr noundef %18) #10
  %20 = load i32, ptr %19, align 8, !tbaa !22
  %.not8.i9.i = icmp eq i32 %20, 0
  br i1 %.not8.i9.i, label %24, label %PyStgInfo_FromAny.exit

PyStgInfo_FromAny.exit:                           ; preds = %17, %11
  %.sink.i = phi ptr [ %13, %11 ], [ %19, %17 ]
  %21 = getelementptr inbounds nuw i8, ptr %.sink.i, i64 16
  %22 = load i64, ptr %21, align 8, !tbaa !74
  %23 = tail call ptr @PyLong_FromSsize_t(i64 noundef %22) #10
  br label %26

24:                                               ; preds = %15, %17, %9, %11
  %25 = load ptr, ptr @PyExc_TypeError, align 8, !tbaa !3
  tail call void @PyErr_SetString(ptr noundef %25, ptr noundef nonnull @.str.78) #10
  br label %26

26:                                               ; preds = %24, %PyStgInfo_FromAny.exit
  %.0 = phi ptr [ %23, %PyStgInfo_FromAny.exit ], [ null, %24 ]
  ret ptr %.0
}